target datalayout = "e-m:e-p270:32:32-p271:32:32-p272:64:64-i64:64-i128:128-f80:128-n8:16:32:64-S128"
target triple = "x86_64-pc-linux-gnu"

@ff_crop_tab = external hidden constant [2304 x i8], align 16

; Function Attrs: nounwind uwtable
define internal void @wmv2_mspel8_h_lowpass(ptr noundef %0, ptr noundef %1, i32 noundef %2, i32 noundef %3, i32 noundef %4) #1 {
  %6 = alloca ptr, align 8
  %7 = alloca ptr, align 8
  %8 = alloca i32, align 4
  %9 = alloca i32, align 4
  %10 = alloca i32, align 4
  %11 = alloca ptr, align 8
  %12 = alloca i32, align 4
  store ptr %0, ptr %6, align 8, !tbaa !15
  store ptr %1, ptr %7, align 8, !tbaa !15
  store i32 %2, ptr %8, align 4, !tbaa !21
  store i32 %3, ptr %9, align 4, !tbaa !21
  store i32 %4, ptr %10, align 4, !tbaa !21
  call void @llvm.lifetime.start.p0(i64 8, ptr %11) #5
  store ptr getelementptr inbounds (i8, ptr @ff_crop_tab, i64 1024), ptr %11, align 8, !tbaa !15
  call void @llvm.lifetime.start.p0(i64 4, ptr %12) #5
  store i32 0, ptr %12, align 4, !tbaa !21
  br label %13

13:                                               ; preds = %250, %5
  %14 = load i32, ptr %12, align 4, !tbaa !21
  %15 = load i32, ptr %10, align 4, !tbaa !21
  %16 = icmp slt i32 %14, %15
  br i1 %16, label %17, label %253

17:                                               ; preds = %13
  %18 = load ptr, ptr %11, align 8, !tbaa !15
  %19 = load ptr, ptr %7, align 8, !tbaa !15
  %20 = getelementptr inbounds i8, ptr %19, i64 0
  %21 = load i8, ptr %20, align 1, !tbaa !25
  %22 = zext i8 %21 to i32
  %23 = load ptr, ptr %7, align 8, !tbaa !15
  %24 = getelementptr inbounds i8, ptr %23, i64 1
  %25 = load i8, ptr %24, align 1, !tbaa !25
  %26 = zext i8 %25 to i32
  %27 = add nsw i32 %22, %26
  %28 = mul nsw i32 9, %27
  %29 = load ptr, ptr %7, align 8, !tbaa !15
  %30 = getelementptr inbounds i8, ptr %29, i64 -1
  %31 = load i8, ptr %30, align 1, !tbaa !25
  %32 = zext i8 %31 to i32
  %33 = load ptr, ptr %7, align 8, !tbaa !15
  %34 = getelementptr inbounds i8, ptr %33, i64 2
  %35 = load i8, ptr %34, align 1, !tbaa !25
  %36 = zext i8 %35 to i32
  %37 = add nsw i32 %32, %36
  %38 = sub nsw i32 %28, %37
  %39 = add nsw i32 %38, 8
  %40 = ashr i32 %39, 4
  %41 = sext i32 %40 to i64
  %42 = getelementptr inbounds i8, ptr %18, i64 %41
  %43 = load i8, ptr %42, align 1, !tbaa !25
  %44 = load ptr, ptr %6, align 8, !tbaa !15
  %45 = getelementptr inbounds i8, ptr %44, i64 0
  store i8 %43, ptr %45, align 1, !tbaa !25
  %46 = load ptr, ptr %11, align 8, !tbaa !15
  %47 = load ptr, ptr %7, align 8, !tbaa !15
  %48 = getelementptr inbounds i8, ptr %47, i64 1
  %49 = load i8, ptr %48, align 1, !tbaa !25
  %50 = zext i8 %49 to i32
  %51 = load ptr, ptr %7, align 8, !tbaa !15
  %52 = getelementptr inbounds i8, ptr %51, i64 2
  %53 = load i8, ptr %52, align 1, !tbaa !25
  %54 = zext i8 %53 to i32
  %55 = add nsw i32 %50, %54
  %56 = mul nsw i32 9, %55
  %57 = load ptr, ptr %7, align 8, !tbaa !15
  %58 = getelementptr inbounds i8, ptr %57, i64 0
  %59 = load i8, ptr %58, align 1, !tbaa !25
  %60 = zext i8 %59 to i32
  %61 = load ptr, ptr %7, align 8, !tbaa !15
  %62 = getelementptr inbounds i8, ptr %61, i64 3
  %63 = load i8, ptr %62, align 1, !tbaa !25
  %64 = zext i8 %63 to i32
  %65 = add nsw i32 %60, %64
  %66 = sub nsw i32 %56, %65
  %67 = add nsw i32 %66, 8
  %68 = ashr i32 %67, 4
  %69 = sext i32 %68 to i64
  %70 = getelementptr inbounds i8, ptr %46, i64 %69
  %71 = load i8, ptr %70, align 1, !tbaa !25
  %72 = load ptr, ptr %6, align 8, !tbaa !15
  %73 = getelementptr inbounds i8, ptr %72, i64 1
  store i8 %71, ptr %73, align 1, !tbaa !25
  %74 = load ptr, ptr %11, align 8, !tbaa !15
  %75 = load ptr, ptr %7, align 8, !tbaa !15
  %76 = getelementptr inbounds i8, ptr %75, i64 2
  %77 = load i8, ptr %76, align 1, !tbaa !25
  %78 = zext i8 %77 to i32
  %79 = load ptr, ptr %7, align 8, !tbaa !15
  %80 = getelementptr inbounds i8, ptr %79, i64 3
  %81 = load i8, ptr %80, align 1, !tbaa !25
  %82 = zext i8 %81 to i32
  %83 = add nsw i32 %78, %82
  %84 = mul nsw i32 9, %83
  %85 = load ptr, ptr %7, align 8, !tbaa !15
  %86 = getelementptr inbounds i8, ptr %85, i64 1
  %87 = load i8, ptr %86, align 1, !tbaa !25
  %88 = zext i8 %87 to i32
  %89 = load ptr, ptr %7, align 8, !tbaa !15
  %90 = getelementptr inbounds i8, ptr %89, i64 4
  %91 = load i8, ptr %90, align 1, !tbaa !25
  %92 = zext i8 %91 to i32
  %93 = add nsw i32 %88, %92
  %94 = sub nsw i32 %84, %93
  %95 = add nsw i32 %94, 8
  %96 = ashr i32 %95, 4
  %97 = sext i32 %96 to i64
  %98 = getelementptr inbounds i8, ptr %74, i64 %97
  %99 = load i8, ptr %98, align 1, !tbaa !25
  %100 = load ptr, ptr %6, align 8, !tbaa !15
  %101 = getelementptr inbounds i8, ptr %100, i64 2
  store i8 %99, ptr %101, align 1, !tbaa !25
  %102 = load ptr, ptr %11, align 8, !tbaa !15
  %103 = load ptr, ptr %7, align 8, !tbaa !15
  %104 = getelementptr inbounds i8, ptr %103, i64 3
  %105 = load i8, ptr %104, align 1, !tbaa !25
  %106 = zext i8 %105 to i32
  %107 = load ptr, ptr %7, align 8, !tbaa !15
  %108 = getelementptr inbounds i8, ptr %107, i64 4
  %109 = load i8, ptr %108, align 1, !tbaa !25
  %110 = zext i8 %109 to i32
  %111 = add nsw i32 %106, %110
  %112 = mul nsw i32 9, %111
  %113 = load ptr, ptr %7, align 8, !tbaa !15
  %114 = getelementptr inbounds i8, ptr %113, i64 2
  %115 = load i8, ptr %114, align 1, !tbaa !25
  %116 = zext i8 %115 to i32
  %117 = load ptr, ptr %7, align 8, !tbaa !15
  %118 = getelementptr inbounds i8, ptr %117, i64 5
  %119 = load i8, ptr %118, align 1, !tbaa !25
  %120 = zext i8 %119 to i32
  %121 = add nsw i32 %116, %120
  %122 = sub nsw i32 %112, %121
  %123 = add nsw i32 %122, 8
  %124 = ashr i32 %123, 4
  %125 = sext i32 %124 to i64
  %126 = getelementptr inbounds i8, ptr %102, i64 %125
  %127 = load i8, ptr %126, align 1, !tbaa !25
  %128 = load ptr, ptr %6, align 8, !tbaa !15
  %129 = getelementptr inbounds i8, ptr %128, i64 3
  store i8 %127, ptr %129, align 1, !tbaa !25
  %130 = load ptr, ptr %11, align 8, !tbaa !15
  %131 = load ptr, ptr %7, align 8, !tbaa !15
  %132 = getelementptr inbounds i8, ptr %131, i64 4
  %133 = load i8, ptr %132, align 1, !tbaa !25
  %134 = zext i8 %133 to i32
  %135 = load ptr, ptr %7, align 8, !tbaa !15
  %136 = getelementptr inbounds i8, ptr %135, i64 5
  %137 = load i8, ptr %136, align 1, !tbaa !25
  %138 = zext i8 %137 to i32
  %139 = add nsw i32 %134, %138
  %140 = mul nsw i32 9, %139
  %141 = load ptr, ptr %7, align 8, !tbaa !15
  %142 = getelementptr inbounds i8, ptr %141, i64 3
  %143 = load i8, ptr %142, align 1, !tbaa !25
  %144 = zext i8 %143 to i32
  %145 = load ptr, ptr %7, align 8, !tbaa !15
  %146 = getelementptr inbounds i8, ptr %145, i64 6
  %147 = load i8, ptr %146, align 1, !tbaa !25
  %148 = zext i8 %147 to i32
  %149 = add nsw i32 %144, %148
  %150 = sub nsw i32 %140, %149
  %151 = add nsw i32 %150, 8
  %152 = ashr i32 %151, 4
  %153 = sext i32 %152 to i64
  %154 = getelementptr inbounds i8, ptr %130, i64 %153
  %155 = load i8, ptr %154, align 1, !tbaa !25
  %156 = load ptr, ptr %6, align 8, !tbaa !15
  %157 = getelementptr inbounds i8, ptr %156, i64 4
  store i8 %155, ptr %157, align 1, !tbaa !25
  %158 = load ptr, ptr %11, align 8, !tbaa !15
  %159 = load ptr, ptr %7, align 8, !tbaa !15
  %160 = getelementptr inbounds i8, ptr %159, i64 5
  %161 = load i8, ptr %160, align 1, !tbaa !25
  %162 = zext i8 %161 to i32
  %163 = load ptr, ptr %7, align 8, !tbaa !15
  %164 = getelementptr inbounds i8, ptr %163, i64 6
  %165 = load i8, ptr %164, align 1, !tbaa !25
  %166 = zext i8 %165 to i32
  %167 = add nsw i32 %162, %166
  %168 = mul nsw i32 9, %167
  %169 = load ptr, ptr %7, align 8, !tbaa !15
  %170 = getelementptr inbounds i8, ptr %169, i64 4
  %171 = load i8, ptr %170, align 1, !tbaa !25
  %172 = zext i8 %171 to i32
  %173 = load ptr, ptr %7, align 8, !tbaa !15
  %174 = getelementptr inbounds i8, ptr %173, i64 7
  %175 = load i8, ptr %174, align 1, !tbaa !25
  %176 = zext i8 %175 to i32
  %177 = add nsw i32 %172, %176
  %178 = sub nsw i32 %168, %177
  %179 = add nsw i32 %178, 8
  %180 = ashr i32 %179, 4
  %181 = sext i32 %180 to i64
  %182 = getelementptr inbounds i8, ptr %158, i64 %181
  %183 = load i8, ptr %182, align 1, !tbaa !25
  %184 = load ptr, ptr %6, align 8, !tbaa !15
  %185 = getelementptr inbounds i8, ptr %184, i64 5
  store i8 %183, ptr %185, align 1, !tbaa !25
  %186 = load ptr, ptr %11, align 8, !tbaa !15
  %187 = load ptr, ptr %7, align 8, !tbaa !15
  %188 = getelementptr inbounds i8, ptr %187, i64 6
  %189 = load i8, ptr %188, align 1, !tbaa !25
  %190 = zext i8 %189 to i32
  %191 = load ptr, ptr %7, align 8, !tbaa !15
  %192 = getelementptr inbounds i8, ptr %191, i64 7
  %193 = load i8, ptr %192, align 1, !tbaa !25
  %194 = zext i8 %193 to i32
  %195 = add nsw i32 %190, %194
  %196 = mul nsw i32 9, %195
  %197 = load ptr, ptr %7, align 8, !tbaa !15
  %198 = getelementptr inbounds i8, ptr %197, i64 5
  %199 = load i8, ptr %198, align 1, !tbaa !25
  %200 = zext i8 %199 to i32
  %201 = load ptr, ptr %7, align 8, !tbaa !15
  %202 = getelementptr inbounds i8, ptr %201, i64 8
  %203 = load i8, ptr %202, align 1, !tbaa !25
  %204 = zext i8 %203 to i32
  %205 = add nsw i32 %200, %204
  %206 = sub nsw i32 %196, %205
  %207 = add nsw i32 %206, 8
  %208 = ashr i32 %207, 4
  %209 = sext i32 %208 to i64
  %210 = getelementptr inbounds i8, ptr %186, i64 %209
  %211 = load i8, ptr %210, align 1, !tbaa !25
  %212 = load ptr, ptr %6, align 8, !tbaa !15
  %213 = getelementptr inbounds i8, ptr %212, i64 6
  store i8 %211, ptr %213, align 1, !tbaa !25
  %214 = load ptr, ptr %11, align 8, !tbaa !15
  %215 = load ptr, ptr %7, align 8, !tbaa !15
  %216 = getelementptr inbounds i8, ptr %215, i64 7
  %217 = load i8, ptr %216, align 1, !tbaa !25
  %218 = zext i8 %217 to i32
  %219 = load ptr, ptr %7, align 8, !tbaa !15
  %220 = getelementptr inbounds i8, ptr %219, i64 8
  %221 = load i8, ptr %220, align 1, !tbaa !25
  %222 = zext i8 %221 to i32
  %223 = add nsw i32 %218, %222
  %224 = mul nsw i32 9, %223
  %225 = load ptr, ptr %7, align 8, !tbaa !15
  %226 = getelementptr inbounds i8, ptr %225, i64 6
  %227 = load i8, ptr %226, align 1, !tbaa !25
  %228 = zext i8 %227 to i32
  %229 = load ptr, ptr %7, align 8, !tbaa !15
  %230 = getelementptr inbounds i8, ptr %229, i64 9
  %231 = load i8, ptr %230, align 1, !tbaa !25
  %232 = zext i8 %231 to i32
  %233 = add nsw i32 %228, %232
  %234 = sub nsw i32 %224, %233
  %235 = add nsw i32 %234, 8
  %236 = ashr i32 %235, 4
  %237 = sext i32 %236 to i64
  %238 = getelementptr inbounds i8, ptr %214, i64 %237
  %239 = load i8, ptr %238, align 1, !tbaa !25
  %240 = load ptr, ptr %6, align 8, !tbaa !15
  %241 = getelementptr inbounds i8, ptr %240, i64 7
  store i8 %239, ptr %241, align 1, !tbaa !25
  %242 = load i32, ptr %8, align 4, !tbaa !21
  %243 = load ptr, ptr %6, align 8, !tbaa !15
  %244 = sext i32 %242 to i64
  %245 = getelementptr inbounds i8, ptr %243, i64 %244
  store ptr %245, ptr %6, align 8, !tbaa !15
  %246 = load i32, ptr %9, align 4, !tbaa !21
  %247 = load ptr, ptr %7, align 8, !tbaa !15
  %248 = sext i32 %246 to i64
  %249 = getelementptr inbounds i8, ptr %247, i64 %248
  store ptr %249, ptr %7, align 8, !tbaa !15
  br label %250

250:                                              ; preds = %17
  %251 = load i32, ptr %12, align 4, !tbaa !21
  %252 = add nsw i32 %251, 1
  store i32 %252, ptr %12, align 4, !tbaa !21
  br label %13, !llvm.loop !32

253:                                              ; preds = %13
  call void @llvm.lifetime.end.p0(i64 4, ptr %12) #5
  call void @llvm.lifetime.end.p0(i64 8, ptr %11) #5
  ret void
}