; Function Attrs: nofree norecurse nosync nounwind memory(argmem: readwrite) uwtable
define internal fastcc void @wmv2_mspel8_h_lowpass(ptr noundef writeonly captures(none) %0, ptr noundef readonly captures(none) %1, i32 noundef %2, i32 noundef %3, i32 noundef range(i32 8, 12) %4) unnamed_addr #1 {
  %6 = sext i32 %2 to i64
  %7 = sext i32 %3 to i64
  br label %8

8:                                                ; preds = %5, %8
  %.081 = phi i32 [ 0, %5 ], [ %156, %8 ]
  %.05480 = phi ptr [ %0, %5 ], [ %154, %8 ]
  %.05579 = phi ptr [ %1, %5 ], [ %155, %8 ]
  %9 = load i8, ptr %.05579, align 1, !tbaa !18
  %10 = zext i8 %9 to i32
  %11 = getelementptr inbounds nuw i8, ptr %.05579, i64 1
  %12 = load i8, ptr %11, align 1, !tbaa !18
  %13 = zext i8 %12 to i32
  %14 = add nuw nsw i32 %13, %10
  %15 = mul nuw nsw i32 %14, 9
  %16 = getelementptr inbounds i8, ptr %.05579, i64 -1
  %17 = load i8, ptr %16, align 1, !tbaa !18
  %18 = zext i8 %17 to i32
  %19 = getelementptr inbounds nuw i8, ptr %.05579, i64 2
  %20 = load i8, ptr %19, align 1, !tbaa !18
  %21 = zext i8 %20 to i32
  %22 = add nuw nsw i32 %18, %21
  %reass.sub = sub nsw i32 %15, %22
  %23 = add nsw i32 %reass.sub, 8
  %24 = ashr i32 %23, 4
  %25 = sext i32 %24 to i64
  %26 = getelementptr inbounds i8, ptr getelementptr inbounds nuw (i8, ptr @ff_crop_tab, i64 1024), i64 %25
  %27 = load i8, ptr %26, align 1, !tbaa !18
  store i8 %27, ptr %.05480, align 1, !tbaa !18
  %28 = load i8, ptr %11, align 1, !tbaa !18
  %29 = zext i8 %28 to i32
  %30 = load i8, ptr %19, align 1, !tbaa !18
  %31 = zext i8 %30 to i32
  %32 = add nuw nsw i32 %31, %29
  %33 = mul nuw nsw i32 %32, 9
  %34 = load i8, ptr %.05579, align 1, !tbaa !18
  %35 = zext i8 %34 to i32
  %36 = getelementptr inbounds nuw i8, ptr %.05579, i64 3
  %37 = load i8, ptr %36, align 1, !tbaa !18
  %38 = zext i8 %37 to i32
  %39 = add nuw nsw i32 %35, %38
  %reass.sub82 = sub nsw i32 %33, %39
  %40 = add nsw i32 %reass.sub82, 8
  %41 = ashr i32 %40, 4
  %42 = sext i32 %41 to i64
  %43 = getelementptr inbounds i8, ptr getelementptr inbounds nuw (i8, ptr @ff_crop_tab, i64 1024), i64 %42
  %44 = load i8, ptr %43, align 1, !tbaa !18
  %45 = getelementptr inbounds nuw i8, ptr %.05480, i64 1
  store i8 %44, ptr %45, align 1, !tbaa !18
  %46 = load i8, ptr %19, align 1, !tbaa !18
  %47 = zext i8 %46 to i32
  %48 = load i8, ptr %36, align 1, !tbaa !18
  %49 = zext i8 %48 to i32
  %50 = add nuw nsw i32 %49, %47
  %51 = mul nuw nsw i32 %50, 9
  %52 = load i8, ptr %11, align 1, !tbaa !18
  %53 = zext i8 %52 to i32
  %54 = getelementptr inbounds nuw i8, ptr %.05579, i64 4
  %55 = load i8, ptr %54, align 1, !tbaa !18
  %56 = zext i8 %55 to i32
  %57 = add nuw nsw i32 %53, %56
  %reass.sub83 = sub nsw i32 %51, %57
  %58 = add nsw i32 %reass.sub83, 8
  %59 = ashr i32 %58, 4
  %60 = sext i32 %59 to i64
  %61 = getelementptr inbounds i8, ptr getelementptr inbounds nuw (i8, ptr @ff_crop_tab, i64 1024), i64 %60
  %62 = load i8, ptr %61, align 1, !tbaa !18
  %63 = getelementptr inbounds nuw i8, ptr %.05480, i64 2
  store i8 %62, ptr %63, align 1, !tbaa !18
  %64 = load i8, ptr %36, align 1, !tbaa !18
  %65 = zext i8 %64 to i32
  %66 = load i8, ptr %54, align 1, !tbaa !18
  %67 = zext i8 %66 to i32
  %68 = add nuw nsw i32 %67, %65
  %69 = mul nuw nsw i32 %68, 9
  %70 = load i8, ptr %19, align 1, !tbaa !18
  %71 = zext i8 %70 to i32
  %72 = getelementptr inbounds nuw i8, ptr %.05579, i64 5
  %73 = load i8, ptr %72, align 1, !tbaa !18
  %74 = zext i8 %73 to i32
  %75 = add nuw nsw i32 %71, %74
  %reass.sub84 = sub nsw i32 %69, %75
  %76 = add nsw i32 %reass.sub84, 8
  %77 = ashr i32 %76, 4
  %78 = sext i32 %77 to i64
  %79 = getelementptr inbounds i8, ptr getelementptr inbounds nuw (i8, ptr @ff_crop_tab, i64 1024), i64 %78
  %80 = load i8, ptr %79, align 1, !tbaa !18
  %81 = getelementptr inbounds nuw i8, ptr %.05480, i64 3
  store i8 %80, ptr %81, align 1, !tbaa !18
  %82 = load i8, ptr %54, align 1, !tbaa !18
  %83 = zext i8 %82 to i32
  %84 = load i8, ptr %72, align 1, !tbaa !18
  %85 = zext i8 %84 to i32
  %86 = add nuw nsw i32 %85, %83
  %87 = mul nuw nsw i32 %86, 9
  %88 = load i8, ptr %36, align 1, !tbaa !18
  %89 = zext i8 %88 to i32
  %90 = getelementptr inbounds nuw i8, ptr %.05579, i64 6
  %91 = load i8, ptr %90, align 1, !tbaa !18
  %92 = zext i8 %91 to i32
  %93 = add nuw nsw i32 %89, %92
  %reass.sub85 = sub nsw i32 %87, %93
  %94 = add nsw i32 %reass.sub85, 8
  %95 = ashr i32 %94, 4
  %96 = sext i32 %95 to i64
  %97 = getelementptr inbounds i8, ptr getelementptr inbounds nuw (i8, ptr @ff_crop_tab, i64 1024), i64 %96
  %98 = load i8, ptr %97, align 1, !tbaa !18
  %99 = getelementptr inbounds nuw i8, ptr %.05480, i64 4
  store i8 %98, ptr %99, align 1, !tbaa !18
  %100 = load i8, ptr %72, align 1, !tbaa !18
  %101 = zext i8 %100 to i32
  %102 = load i8, ptr %90, align 1, !tbaa !18
  %103 = zext i8 %102 to i32
  %104 = add nuw nsw i32 %103, %101
  %105 = mul nuw nsw i32 %104, 9
  %106 = load i8, ptr %54, align 1, !tbaa !18
  %107 = zext i8 %106 to i32
  %108 = getelementptr inbounds nuw i8, ptr %.05579, i64 7
  %109 = load i8, ptr %108, align 1, !tbaa !18
  %110 = zext i8 %109 to i32
  %111 = add nuw nsw i32 %107, %110
  %reass.sub86 = sub nsw i32 %105, %111
  %112 = add nsw i32 %reass.sub86, 8
  %113 = ashr i32 %112, 4
  %114 = sext i32 %113 to i64
  %115 = getelementptr inbounds i8, ptr getelementptr inbounds nuw (i8, ptr @ff_crop_tab, i64 1024), i64 %114
  %116 = load i8, ptr %115, align 1, !tbaa !18
  %117 = getelementptr inbounds nuw i8, ptr %.05480, i64 5
  store i8 %116, ptr %117, align 1, !tbaa !18
  %118 = load i8, ptr %90, align 1, !tbaa !18
  %119 = zext i8 %118 to i32
  %120 = load i8, ptr %108, align 1, !tbaa !18
  %121 = zext i8 %120 to i32
  %122 = add nuw nsw i32 %121, %119
  %123 = mul nuw nsw i32 %122, 9
  %124 = load i8, ptr %72, align 1, !tbaa !18
  %125 = zext i8 %124 to i32
  %126 = getelementptr inbounds nuw i8, ptr %.05579, i64 8
  %127 = load i8, ptr %126, align 1, !tbaa !18
  %128 = zext i8 %127 to i32
  %129 = add nuw nsw i32 %125, %128
  %reass.sub87 = sub nsw i32 %123, %129
  %130 = add nsw i32 %reass.sub87, 8
  %131 = ashr i32 %130, 4
  %132 = sext i32 %131 to i64
  %133 = getelementptr inbounds i8, ptr getelementptr inbounds nuw (i8, ptr @ff_crop_tab, i64 1024), i64 %132
  %134 = load i8, ptr %133, align 1, !tbaa !18
  %135 = getelementptr inbounds nuw i8, ptr %.05480, i64 6
  store i8 %134, ptr %135, align 1, !tbaa !18
  %136 = load i8, ptr %108, align 1, !tbaa !18
  %137 = zext i8 %136 to i32
  %138 = load i8, ptr %126, align 1, !tbaa !18
  %139 = zext i8 %138 to i32
  %140 = add nuw nsw i32 %139, %137
  %141 = mul nuw nsw i32 %140, 9
  %142 = load i8, ptr %90, align 1, !tbaa !18
  %143 = zext i8 %142 to i32
  %144 = getelementptr inbounds nuw i8, ptr %.05579, i64 9
  %145 = load i8, ptr %144, align 1, !tbaa !18
  %146 = zext i8 %145 to i32
  %147 = add nuw nsw i32 %143, %146
  %reass.sub88 = sub nsw i32 %141, %147
  %148 = add nsw i32 %reass.sub88, 8
  %149 = ashr i32 %148, 4
  %150 = sext i32 %149 to i64
  %151 = getelementptr inbounds i8, ptr getelementptr inbounds nuw (i8, ptr @ff_crop_tab, i64 1024), i64 %150
  %152 = load i8, ptr %151, align 1, !tbaa !18
  %153 = getelementptr inbounds nuw i8, ptr %.05480, i64 7
  store i8 %152, ptr %153, align 1, !tbaa !18
  %154 = getelementptr inbounds i8, ptr %.05480, i64 %6
  %155 = getelementptr inbounds i8, ptr %.05579, i64 %7
  %156 = add nuw nsw i32 %.081, 1
  %exitcond.not = icmp eq i32 %156, %4
  br i1 %exitcond.not, label %157, label %8, !llvm.loop !23

157:                                              ; preds = %8
  ret void
}